target datalayout = "e-m:e-p270:32:32-p271:32:32-p272:64:64-i64:64-i128:128-f80:128-n8:16:32:64-S128"
target triple = "x86_64-pc-linux-gnu"

%struct.mbedtls_mpi = type { i32, i64, ptr }
%struct.mbedtls_rsa_context = type { i32, i64, %struct.mbedtls_mpi, %struct.mbedtls_mpi, %struct.mbedtls_mpi, %struct.mbedtls_mpi, %struct.mbedtls_mpi, %struct.mbedtls_mpi, %struct.mbedtls_mpi, %struct.mbedtls_mpi, %struct.mbedtls_mpi, %struct.mbedtls_mpi, %struct.mbedtls_mpi, %struct.mbedtls_mpi, %struct.mbedtls_mpi, i32, i32 }

@.str = private unnamed_addr constant [131 x i8] c"generated/home/dtcxzyw/WorkSpace/Projects/compilers/llvm-opt-benchmark/bench/duckdb/duckdb/third_party/mbedtls/library/pkparse.cpp\00", align 1

; Function Attrs: inlinehint mustprogress nounwind uwtable
define internal noundef i32 @_ZL17mbedtls_error_addiiPKci(i32 noundef %0, i32 noundef %1, ptr noundef %2, i32 noundef %3) #3 {
  %5 = alloca i32, align 4
  %6 = alloca i32, align 4
  %7 = alloca ptr, align 8
  %8 = alloca i32, align 4
  store i32 %0, ptr %5, align 4, !tbaa !12
  store i32 %1, ptr %6, align 4, !tbaa !12
  store ptr %2, ptr %7, align 8, !tbaa !8
  store i32 %3, ptr %8, align 4, !tbaa !12
  %9 = load i32, ptr %5, align 4, !tbaa !12
  %10 = load i32, ptr %6, align 4, !tbaa !12
  %11 = add nsw i32 %9, %10
  ret i32 %11
}

; Function Attrs: mustprogress uwtable
define internal noundef i32 @_ZL22pk_parse_key_pkcs1_derP19mbedtls_rsa_contextPKhm(ptr noundef %0, ptr noundef %1, i64 noundef %2) #0 {
  %4 = alloca i32, align 4
  %5 = alloca ptr, align 8
  %6 = alloca ptr, align 8
  %7 = alloca i64, align 8
  %8 = alloca i32, align 4
  %9 = alloca i32, align 4
  %10 = alloca i64, align 8
  %11 = alloca ptr, align 8
  %12 = alloca ptr, align 8
  %13 = alloca %struct.mbedtls_mpi, align 8
  %14 = alloca i32, align 4
  store ptr %0, ptr %5, align 8, !tbaa !27
  store ptr %1, ptr %6, align 8, !tbaa !8
  store i64 %2, ptr %7, align 8, !tbaa !16
  call void @llvm.lifetime.start.p0(i64 4, ptr %8) #6
  call void @llvm.lifetime.start.p0(i64 4, ptr %9) #6
  call void @llvm.lifetime.start.p0(i64 8, ptr %10) #6
  call void @llvm.lifetime.start.p0(i64 8, ptr %11) #6
  call void @llvm.lifetime.start.p0(i64 8, ptr %12) #6
  call void @llvm.lifetime.start.p0(i64 24, ptr %13) #6
  call void @mbedtls_mpi_init(ptr noundef %13)
  %15 = load ptr, ptr %6, align 8, !tbaa !8
  store ptr %15, ptr %11, align 8, !tbaa !8
  %16 = load ptr, ptr %11, align 8, !tbaa !8
  %17 = load i64, ptr %7, align 8, !tbaa !16
  %18 = getelementptr inbounds nuw i8, ptr %16, i64 %17
  store ptr %18, ptr %12, align 8, !tbaa !8
  %19 = load ptr, ptr %12, align 8, !tbaa !8
  %20 = call i32 @mbedtls_asn1_get_tag(ptr noundef %11, ptr noundef %19, ptr noundef %10, i32 noundef 48)
  store i32 %20, ptr %8, align 4, !tbaa !12
  %21 = icmp ne i32 %20, 0
  br i1 %21, label %22, label %25

22:                                               ; preds = %3
  %23 = load i32, ptr %8, align 4, !tbaa !12
  %24 = call noundef i32 @_ZL17mbedtls_error_addiiPKci(i32 noundef -15616, i32 noundef %23, ptr noundef @.str, i32 noundef 738)
  store i32 %24, ptr %4, align 4
  store i32 1, ptr %14, align 4
  br label %145

25:                                               ; preds = %3
  %26 = load ptr, ptr %11, align 8, !tbaa !8
  %27 = load i64, ptr %10, align 8, !tbaa !16
  %28 = getelementptr inbounds nuw i8, ptr %26, i64 %27
  store ptr %28, ptr %12, align 8, !tbaa !8
  %29 = load ptr, ptr %12, align 8, !tbaa !8
  %30 = call i32 @mbedtls_asn1_get_int(ptr noundef %11, ptr noundef %29, ptr noundef %9)
  store i32 %30, ptr %8, align 4, !tbaa !12
  %31 = icmp ne i32 %30, 0
  br i1 %31, label %32, label %35

32:                                               ; preds = %25
  %33 = load i32, ptr %8, align 4, !tbaa !12
  %34 = call noundef i32 @_ZL17mbedtls_error_addiiPKci(i32 noundef -15616, i32 noundef %33, ptr noundef @.str, i32 noundef 745)
  store i32 %34, ptr %4, align 4
  store i32 1, ptr %14, align 4
  br label %145

35:                                               ; preds = %25
  %36 = load i32, ptr %9, align 4, !tbaa !12
  %37 = icmp ne i32 %36, 0
  br i1 %37, label %38, label %39

38:                                               ; preds = %35
  store i32 -15744, ptr %4, align 4
  store i32 1, ptr %14, align 4
  br label %145

39:                                               ; preds = %35
  %40 = load ptr, ptr %12, align 8, !tbaa !8
  %41 = call noundef i32 @_ZL20asn1_get_nonzero_mpiPPhPKhP11mbedtls_mpi(ptr noundef %11, ptr noundef %40, ptr noundef %13)
  store i32 %41, ptr %8, align 4, !tbaa !12
  %42 = icmp ne i32 %41, 0
  br i1 %42, label %47, label %43

43:                                               ; preds = %39
  %44 = load ptr, ptr %5, align 8, !tbaa !27
  %45 = call i32 @mbedtls_rsa_import(ptr noundef %44, ptr noundef %13, ptr noundef null, ptr noundef null, ptr noundef null, ptr noundef null)
  store i32 %45, ptr %8, align 4, !tbaa !12
  %46 = icmp ne i32 %45, 0
  br i1 %46, label %47, label %48

47:                                               ; preds = %43, %39
  br label %130

48:                                               ; preds = %43
  %49 = load ptr, ptr %12, align 8, !tbaa !8
  %50 = call noundef i32 @_ZL20asn1_get_nonzero_mpiPPhPKhP11mbedtls_mpi(ptr noundef %11, ptr noundef %49, ptr noundef %13)
  store i32 %50, ptr %8, align 4, !tbaa !12
  %51 = icmp ne i32 %50, 0
  br i1 %51, label %56, label %52

52:                                               ; preds = %48
  %53 = load ptr, ptr %5, align 8, !tbaa !27
  %54 = call i32 @mbedtls_rsa_import(ptr noundef %53, ptr noundef null, ptr noundef null, ptr noundef null, ptr noundef null, ptr noundef %13)
  store i32 %54, ptr %8, align 4, !tbaa !12
  %55 = icmp ne i32 %54, 0
  br i1 %55, label %56, label %57

56:                                               ; preds = %52, %48
  br label %130

57:                                               ; preds = %52
  %58 = load ptr, ptr %12, align 8, !tbaa !8
  %59 = call noundef i32 @_ZL20asn1_get_nonzero_mpiPPhPKhP11mbedtls_mpi(ptr noundef %11, ptr noundef %58, ptr noundef %13)
  store i32 %59, ptr %8, align 4, !tbaa !12
  %60 = icmp ne i32 %59, 0
  br i1 %60, label %65, label %61

61:                                               ; preds = %57
  %62 = load ptr, ptr %5, align 8, !tbaa !27
  %63 = call i32 @mbedtls_rsa_import(ptr noundef %62, ptr noundef null, ptr noundef null, ptr noundef null, ptr noundef %13, ptr noundef null)
  store i32 %63, ptr %8, align 4, !tbaa !12
  %64 = icmp ne i32 %63, 0
  br i1 %64, label %65, label %66

65:                                               ; preds = %61, %57
  br label %130

66:                                               ; preds = %61
  %67 = load ptr, ptr %12, align 8, !tbaa !8
  %68 = call noundef i32 @_ZL20asn1_get_nonzero_mpiPPhPKhP11mbedtls_mpi(ptr noundef %11, ptr noundef %67, ptr noundef %13)
  store i32 %68, ptr %8, align 4, !tbaa !12
  %69 = icmp ne i32 %68, 0
  br i1 %69, label %74, label %70

70:                                               ; preds = %66
  %71 = load ptr, ptr %5, align 8, !tbaa !27
  %72 = call i32 @mbedtls_rsa_import(ptr noundef %71, ptr noundef null, ptr noundef %13, ptr noundef null, ptr noundef null, ptr noundef null)
  store i32 %72, ptr %8, align 4, !tbaa !12
  %73 = icmp ne i32 %72, 0
  br i1 %73, label %74, label %75

74:                                               ; preds = %70, %66
  br label %130

75:                                               ; preds = %70
  %76 = load ptr, ptr %12, align 8, !tbaa !8
  %77 = call noundef i32 @_ZL20asn1_get_nonzero_mpiPPhPKhP11mbedtls_mpi(ptr noundef %11, ptr noundef %76, ptr noundef %13)
  store i32 %77, ptr %8, align 4, !tbaa !12
  %78 = icmp ne i32 %77, 0
  br i1 %78, label %83, label %79

79:                                               ; preds = %75
  %80 = load ptr, ptr %5, align 8, !tbaa !27
  %81 = call i32 @mbedtls_rsa_import(ptr noundef %80, ptr noundef null, ptr noundef null, ptr noundef %13, ptr noundef null, ptr noundef null)
  store i32 %81, ptr %8, align 4, !tbaa !12
  %82 = icmp ne i32 %81, 0
  br i1 %82, label %83, label %84

83:                                               ; preds = %79, %75
  br label %130

84:                                               ; preds = %79
  %85 = load ptr, ptr %12, align 8, !tbaa !8
  %86 = call noundef i32 @_ZL20asn1_get_nonzero_mpiPPhPKhP11mbedtls_mpi(ptr noundef %11, ptr noundef %85, ptr noundef %13)
  store i32 %86, ptr %8, align 4, !tbaa !12
  %87 = icmp ne i32 %86, 0
  br i1 %87, label %93, label %88

88:                                               ; preds = %84
  %89 = load ptr, ptr %5, align 8, !tbaa !27
  %90 = getelementptr inbounds nuw %struct.mbedtls_rsa_context, ptr %89, i32 0, i32 7
  %91 = call i32 @mbedtls_mpi_copy(ptr noundef %90, ptr noundef %13)
  store i32 %91, ptr %8, align 4, !tbaa !12
  %92 = icmp ne i32 %91, 0
  br i1 %92, label %93, label %94

93:                                               ; preds = %88, %84
  br label %130

94:                                               ; preds = %88
  %95 = load ptr, ptr %12, align 8, !tbaa !8
  %96 = call noundef i32 @_ZL20asn1_get_nonzero_mpiPPhPKhP11mbedtls_mpi(ptr noundef %11, ptr noundef %95, ptr noundef %13)
  store i32 %96, ptr %8, align 4, !tbaa !12
  %97 = icmp ne i32 %96, 0
  br i1 %97, label %103, label %98

98:                                               ; preds = %94
  %99 = load ptr, ptr %5, align 8, !tbaa !27
  %100 = getelementptr inbounds nuw %struct.mbedtls_rsa_context, ptr %99, i32 0, i32 8
  %101 = call i32 @mbedtls_mpi_copy(ptr noundef %100, ptr noundef %13)
  store i32 %101, ptr %8, align 4, !tbaa !12
  %102 = icmp ne i32 %101, 0
  br i1 %102, label %103, label %104

103:                                              ; preds = %98, %94
  br label %130

104:                                              ; preds = %98
  %105 = load ptr, ptr %12, align 8, !tbaa !8
  %106 = call noundef i32 @_ZL20asn1_get_nonzero_mpiPPhPKhP11mbedtls_mpi(ptr noundef %11, ptr noundef %105, ptr noundef %13)
  store i32 %106, ptr %8, align 4, !tbaa !12
  %107 = icmp ne i32 %106, 0
  br i1 %107, label %113, label %108

108:                                              ; preds = %104
  %109 = load ptr, ptr %5, align 8, !tbaa !27
  %110 = getelementptr inbounds nuw %struct.mbedtls_rsa_context, ptr %109, i32 0, i32 9
  %111 = call i32 @mbedtls_mpi_copy(ptr noundef %110, ptr noundef %13)
  store i32 %111, ptr %8, align 4, !tbaa !12
  %112 = icmp ne i32 %111, 0
  br i1 %112, label %113, label %114

113:                                              ; preds = %108, %104
  br label %130

114:                                              ; preds = %108
  %115 = load ptr, ptr %5, align 8, !tbaa !27
  %116 = call i32 @mbedtls_rsa_complete(ptr noundef %115)
  store i32 %116, ptr %8, align 4, !tbaa !12
  %117 = icmp ne i32 %116, 0
  br i1 %117, label %122, label %118

118:                                              ; preds = %114
  %119 = load ptr, ptr %5, align 8, !tbaa !27
  %120 = call i32 @mbedtls_rsa_check_pubkey(ptr noundef %119)
  store i32 %120, ptr %8, align 4, !tbaa !12
  %121 = icmp ne i32 %120, 0
  br i1 %121, label %122, label %123

122:                                              ; preds = %118, %114
  br label %130

123:                                              ; preds = %118
  %124 = load ptr, ptr %11, align 8, !tbaa !8
  %125 = load ptr, ptr %12, align 8, !tbaa !8
  %126 = icmp ne ptr %124, %125
  br i1 %126, label %127, label %129

127:                                              ; preds = %123
  %128 = call noundef i32 @_ZL17mbedtls_error_addiiPKci(i32 noundef -15616, i32 noundef -102, ptr noundef @.str, i32 noundef 836)
  store i32 %128, ptr %8, align 4, !tbaa !12
  br label %129

129:                                              ; preds = %127, %123
  br label %130

130:                                              ; preds = %129, %122, %113, %103, %93, %83, %74, %65, %56, %47
  call void @mbedtls_mpi_free(ptr noundef %13)
  %131 = load i32, ptr %8, align 4, !tbaa !12
  %132 = icmp ne i32 %131, 0
  br i1 %132, label %133, label %143

133:                                              ; preds = %130
  %134 = load i32, ptr %8, align 4, !tbaa !12
  %135 = and i32 %134, 65408
  %136 = icmp eq i32 %135, 0
  br i1 %136, label %137, label %140

137:                                              ; preds = %133
  %138 = load i32, ptr %8, align 4, !tbaa !12
  %139 = call noundef i32 @_ZL17mbedtls_error_addiiPKci(i32 noundef -15616, i32 noundef %138, ptr noundef @.str, i32 noundef 847)
  store i32 %139, ptr %8, align 4, !tbaa !12
  br label %141

140:                                              ; preds = %133
  store i32 -15616, ptr %8, align 4, !tbaa !12
  br label %141

141:                                              ; preds = %140, %137
  %142 = load ptr, ptr %5, align 8, !tbaa !27
  call void @mbedtls_rsa_free(ptr noundef %142)
  br label %143

143:                                              ; preds = %141, %130
  %144 = load i32, ptr %8, align 4, !tbaa !12
  store i32 %144, ptr %4, align 4
  store i32 1, ptr %14, align 4
  br label %145

145:                                              ; preds = %143, %38, %32, %22
  call void @llvm.lifetime.end.p0(i64 24, ptr %13) #6
  call void @llvm.lifetime.end.p0(i64 8, ptr %12) #6
  call void @llvm.lifetime.end.p0(i64 8, ptr %11) #6
  call void @llvm.lifetime.end.p0(i64 8, ptr %10) #6
  call void @llvm.lifetime.end.p0(i64 4, ptr %9) #6
  call void @llvm.lifetime.end.p0(i64 4, ptr %8) #6
  %146 = load i32, ptr %4, align 4
  ret i32 %146
}