; Function Attrs: mustprogress uwtable
define internal fastcc noundef range(i32 -2147483648, 2147468032) i32 @_ZL22pk_parse_key_pkcs1_derP19mbedtls_rsa_contextPKhm(ptr noundef %0, ptr noundef %1, i64 noundef %2) unnamed_addr #0 {
  %4 = alloca i32, align 4
  %5 = alloca i64, align 8
  %6 = alloca ptr, align 8
  %7 = alloca %struct.mbedtls_mpi, align 8
  call void @llvm.lifetime.start.p0(i64 4, ptr nonnull %4) #4
  call void @llvm.lifetime.start.p0(i64 8, ptr nonnull %5) #4
  call void @llvm.lifetime.start.p0(i64 8, ptr nonnull %6) #4
  call void @llvm.lifetime.start.p0(i64 24, ptr nonnull %7) #4
  call void @mbedtls_mpi_init(ptr noundef nonnull %7)
  store ptr %1, ptr %6, align 8, !tbaa !7
  %8 = getelementptr inbounds nuw i8, ptr %1, i64 %2
  %9 = call i32 @mbedtls_asn1_get_tag(ptr noundef nonnull %6, ptr noundef %8, ptr noundef nonnull %5, i32 noundef 48)
  %.not = icmp eq i32 %9, 0
  br i1 %.not, label %12, label %10

10:                                               ; preds = %3
  %11 = add nsw i32 %9, -15616
  br label %67

12:                                               ; preds = %3
  %13 = load ptr, ptr %6, align 8, !tbaa !7
  %14 = load i64, ptr %5, align 8, !tbaa !10
  %15 = getelementptr inbounds nuw i8, ptr %13, i64 %14
  %16 = call i32 @mbedtls_asn1_get_int(ptr noundef nonnull %6, ptr noundef %15, ptr noundef nonnull %4)
  %.not52 = icmp eq i32 %16, 0
  br i1 %.not52, label %19, label %17

17:                                               ; preds = %12
  %18 = add nsw i32 %16, -15616
  br label %67

19:                                               ; preds = %12
  %20 = load i32, ptr %4, align 4, !tbaa !21
  %.not53 = icmp eq i32 %20, 0
  br i1 %.not53, label %21, label %67

21:                                               ; preds = %19
  %22 = call i32 @mbedtls_asn1_get_mpi(ptr noundef nonnull %6, ptr noundef %15, ptr noundef nonnull %7)
  %.not.i = icmp eq i32 %22, 0
  br i1 %.not.i, label %23, label %_ZL20asn1_get_nonzero_mpiPPhPKhP11mbedtls_mpi.exit.thread

23:                                               ; preds = %21
  %24 = call i32 @mbedtls_mpi_cmp_int(ptr noundef nonnull %7, i64 noundef 0)
  %25 = icmp eq i32 %24, 0
  br i1 %25, label %_ZL20asn1_get_nonzero_mpiPPhPKhP11mbedtls_mpi.exit.thread.thread, label %_ZL20asn1_get_nonzero_mpiPPhPKhP11mbedtls_mpi.exit

_ZL20asn1_get_nonzero_mpiPPhPKhP11mbedtls_mpi.exit.thread.thread: ; preds = %23
  call void @mbedtls_mpi_free(ptr noundef nonnull %7)
  br label %.thread79

_ZL20asn1_get_nonzero_mpiPPhPKhP11mbedtls_mpi.exit: ; preds = %23
  %26 = call i32 @mbedtls_rsa_import(ptr noundef %0, ptr noundef nonnull %7, ptr noundef null, ptr noundef null, ptr noundef null, ptr noundef null)
  %.not55 = icmp eq i32 %26, 0
  br i1 %.not55, label %27, label %_ZL20asn1_get_nonzero_mpiPPhPKhP11mbedtls_mpi.exit.thread

27:                                               ; preds = %_ZL20asn1_get_nonzero_mpiPPhPKhP11mbedtls_mpi.exit
  %28 = call fastcc noundef i32 @_ZL20asn1_get_nonzero_mpiPPhPKhP11mbedtls_mpi(ptr noundef %6, ptr noundef %15, ptr noundef %7)
  %.not56 = icmp eq i32 %28, 0
  br i1 %.not56, label %29, label %_ZL20asn1_get_nonzero_mpiPPhPKhP11mbedtls_mpi.exit.thread

29:                                               ; preds = %27
  %30 = call i32 @mbedtls_rsa_import(ptr noundef %0, ptr noundef null, ptr noundef null, ptr noundef null, ptr noundef null, ptr noundef nonnull %7)
  %.not57 = icmp eq i32 %30, 0
  br i1 %.not57, label %31, label %_ZL20asn1_get_nonzero_mpiPPhPKhP11mbedtls_mpi.exit.thread

31:                                               ; preds = %29
  %32 = call fastcc noundef i32 @_ZL20asn1_get_nonzero_mpiPPhPKhP11mbedtls_mpi(ptr noundef %6, ptr noundef %15, ptr noundef %7)
  %.not58 = icmp eq i32 %32, 0
  br i1 %.not58, label %33, label %_ZL20asn1_get_nonzero_mpiPPhPKhP11mbedtls_mpi.exit.thread

33:                                               ; preds = %31
  %34 = call i32 @mbedtls_rsa_import(ptr noundef %0, ptr noundef null, ptr noundef null, ptr noundef null, ptr noundef nonnull %7, ptr noundef null)
  %.not59 = icmp eq i32 %34, 0
  br i1 %.not59, label %35, label %_ZL20asn1_get_nonzero_mpiPPhPKhP11mbedtls_mpi.exit.thread

35:                                               ; preds = %33
  %36 = call fastcc noundef i32 @_ZL20asn1_get_nonzero_mpiPPhPKhP11mbedtls_mpi(ptr noundef %6, ptr noundef %15, ptr noundef %7)
  %.not60 = icmp eq i32 %36, 0
  br i1 %.not60, label %37, label %_ZL20asn1_get_nonzero_mpiPPhPKhP11mbedtls_mpi.exit.thread

37:                                               ; preds = %35
  %38 = call i32 @mbedtls_rsa_import(ptr noundef %0, ptr noundef null, ptr noundef nonnull %7, ptr noundef null, ptr noundef null, ptr noundef null)
  %.not61 = icmp eq i32 %38, 0
  br i1 %.not61, label %39, label %_ZL20asn1_get_nonzero_mpiPPhPKhP11mbedtls_mpi.exit.thread

39:                                               ; preds = %37
  %40 = call fastcc noundef i32 @_ZL20asn1_get_nonzero_mpiPPhPKhP11mbedtls_mpi(ptr noundef %6, ptr noundef %15, ptr noundef %7)
  %.not62 = icmp eq i32 %40, 0
  br i1 %.not62, label %41, label %_ZL20asn1_get_nonzero_mpiPPhPKhP11mbedtls_mpi.exit.thread

41:                                               ; preds = %39
  %42 = call i32 @mbedtls_rsa_import(ptr noundef %0, ptr noundef null, ptr noundef null, ptr noundef nonnull %7, ptr noundef null, ptr noundef null)
  %.not63 = icmp eq i32 %42, 0
  br i1 %.not63, label %43, label %_ZL20asn1_get_nonzero_mpiPPhPKhP11mbedtls_mpi.exit.thread

43:                                               ; preds = %41
  %44 = call fastcc noundef i32 @_ZL20asn1_get_nonzero_mpiPPhPKhP11mbedtls_mpi(ptr noundef %6, ptr noundef %15, ptr noundef %7)
  %.not64 = icmp eq i32 %44, 0
  br i1 %.not64, label %45, label %_ZL20asn1_get_nonzero_mpiPPhPKhP11mbedtls_mpi.exit.thread

45:                                               ; preds = %43
  %46 = getelementptr inbounds nuw i8, ptr %0, i64 136
  %47 = call i32 @mbedtls_mpi_copy(ptr noundef nonnull %46, ptr noundef nonnull %7)
  %.not65 = icmp eq i32 %47, 0
  br i1 %.not65, label %48, label %_ZL20asn1_get_nonzero_mpiPPhPKhP11mbedtls_mpi.exit.thread

48:                                               ; preds = %45
  %49 = call fastcc noundef i32 @_ZL20asn1_get_nonzero_mpiPPhPKhP11mbedtls_mpi(ptr noundef %6, ptr noundef %15, ptr noundef %7)
  %.not66 = icmp eq i32 %49, 0
  br i1 %.not66, label %50, label %_ZL20asn1_get_nonzero_mpiPPhPKhP11mbedtls_mpi.exit.thread

50:                                               ; preds = %48
  %51 = getelementptr inbounds nuw i8, ptr %0, i64 160
  %52 = call i32 @mbedtls_mpi_copy(ptr noundef nonnull %51, ptr noundef nonnull %7)
  %.not67 = icmp eq i32 %52, 0
  br i1 %.not67, label %53, label %_ZL20asn1_get_nonzero_mpiPPhPKhP11mbedtls_mpi.exit.thread

53:                                               ; preds = %50
  %54 = call fastcc noundef i32 @_ZL20asn1_get_nonzero_mpiPPhPKhP11mbedtls_mpi(ptr noundef %6, ptr noundef %15, ptr noundef %7)
  %.not68 = icmp eq i32 %54, 0
  br i1 %.not68, label %55, label %_ZL20asn1_get_nonzero_mpiPPhPKhP11mbedtls_mpi.exit.thread

55:                                               ; preds = %53
  %56 = getelementptr inbounds nuw i8, ptr %0, i64 184
  %57 = call i32 @mbedtls_mpi_copy(ptr noundef nonnull %56, ptr noundef nonnull %7)
  %.not69 = icmp eq i32 %57, 0
  br i1 %.not69, label %58, label %_ZL20asn1_get_nonzero_mpiPPhPKhP11mbedtls_mpi.exit.thread

58:                                               ; preds = %55
  %59 = call i32 @mbedtls_rsa_complete(ptr noundef nonnull %0)
  %.not70 = icmp eq i32 %59, 0
  br i1 %.not70, label %60, label %_ZL20asn1_get_nonzero_mpiPPhPKhP11mbedtls_mpi.exit.thread

60:                                               ; preds = %58
  %61 = call i32 @mbedtls_rsa_check_pubkey(ptr noundef nonnull %0)
  %.not71 = icmp eq i32 %61, 0
  br i1 %.not71, label %62, label %_ZL20asn1_get_nonzero_mpiPPhPKhP11mbedtls_mpi.exit.thread

62:                                               ; preds = %60
  %63 = load ptr, ptr %6, align 8, !tbaa !7
  %.not72 = icmp eq ptr %63, %15
  call void @mbedtls_mpi_free(ptr noundef nonnull %7)
  br i1 %.not72, label %67, label %.thread79

_ZL20asn1_get_nonzero_mpiPPhPKhP11mbedtls_mpi.exit.thread: ; preds = %21, %_ZL20asn1_get_nonzero_mpiPPhPKhP11mbedtls_mpi.exit, %27, %29, %31, %33, %35, %37, %39, %41, %43, %45, %48, %50, %53, %55, %58, %60
  %.0.ph = phi i32 [ %61, %60 ], [ %59, %58 ], [ %57, %55 ], [ %54, %53 ], [ %52, %50 ], [ %49, %48 ], [ %47, %45 ], [ %44, %43 ], [ %42, %41 ], [ %40, %39 ], [ %38, %37 ], [ %36, %35 ], [ %34, %33 ], [ %32, %31 ], [ %30, %29 ], [ %28, %27 ], [ %26, %_ZL20asn1_get_nonzero_mpiPPhPKhP11mbedtls_mpi.exit ], [ %22, %21 ]
  call void @mbedtls_mpi_free(ptr noundef nonnull %7)
  %64 = and i32 %.0.ph, 65408
  %65 = icmp eq i32 %64, 0
  %66 = add nsw i32 %.0.ph, -15616
  %spec.select = select i1 %65, i32 %66, i32 -15616
  br label %.thread79

.thread79:                                        ; preds = %62, %_ZL20asn1_get_nonzero_mpiPPhPKhP11mbedtls_mpi.exit.thread, %_ZL20asn1_get_nonzero_mpiPPhPKhP11mbedtls_mpi.exit.thread.thread
  %.2 = phi i32 [ -15616, %_ZL20asn1_get_nonzero_mpiPPhPKhP11mbedtls_mpi.exit.thread.thread ], [ %spec.select, %_ZL20asn1_get_nonzero_mpiPPhPKhP11mbedtls_mpi.exit.thread ], [ -15616, %62 ]
  call void @mbedtls_rsa_free(ptr noundef %0)
  br label %67

67:                                               ; preds = %62, %.thread79, %19, %17, %10
  %.030 = phi i32 [ %11, %10 ], [ %18, %17 ], [ -15744, %19 ], [ %.2, %.thread79 ], [ 0, %62 ]
  call void @llvm.lifetime.end.p0(i64 24, ptr nonnull %7) #4
  call void @llvm.lifetime.end.p0(i64 8, ptr nonnull %6) #4
  call void @llvm.lifetime.end.p0(i64 8, ptr nonnull %5) #4
  call void @llvm.lifetime.end.p0(i64 4, ptr nonnull %4) #4
  ret i32 %.030
}